target datalayout = "e-m:e-p270:32:32-p271:32:32-p272:64:64-i64:64-i128:128-f80:128-n8:16:32:64-S128"
target triple = "x86_64-pc-linux-gnu"

%struct.Pxy_t = type { double, double }

; Function Attrs: nounwind uwtable
define i32 @ccw(double %0, double %1, double %2, double %3, double %4, double %5) #0 {
  %7 = alloca %struct.Pxy_t, align 8
  %8 = alloca %struct.Pxy_t, align 8
  %9 = alloca %struct.Pxy_t, align 8
  %10 = alloca double, align 8
  %11 = getelementptr inbounds nuw { double, double }, ptr %7, i32 0, i32 0
  store double %0, ptr %11, align 8
  %12 = getelementptr inbounds nuw { double, double }, ptr %7, i32 0, i32 1
  store double %1, ptr %12, align 8
  %13 = getelementptr inbounds nuw { double, double }, ptr %8, i32 0, i32 0
  store double %2, ptr %13, align 8
  %14 = getelementptr inbounds nuw { double, double }, ptr %8, i32 0, i32 1
  store double %3, ptr %14, align 8
  %15 = getelementptr inbounds nuw { double, double }, ptr %9, i32 0, i32 0
  store double %4, ptr %15, align 8
  %16 = getelementptr inbounds nuw { double, double }, ptr %9, i32 0, i32 1
  store double %5, ptr %16, align 8
  call void @llvm.lifetime.start.p0(i64 8, ptr %10) #9
  %17 = getelementptr inbounds nuw %struct.Pxy_t, ptr %7, i32 0, i32 1
  %18 = load double, ptr %17, align 8, !tbaa !3
  %19 = getelementptr inbounds nuw %struct.Pxy_t, ptr %8, i32 0, i32 1
  %20 = load double, ptr %19, align 8, !tbaa !3
  %21 = fsub double %18, %20
  %22 = getelementptr inbounds nuw %struct.Pxy_t, ptr %9, i32 0, i32 0
  %23 = load double, ptr %22, align 8, !tbaa !8
  %24 = getelementptr inbounds nuw %struct.Pxy_t, ptr %8, i32 0, i32 0
  %25 = load double, ptr %24, align 8, !tbaa !8
  %26 = fsub double %23, %25
  %27 = getelementptr inbounds nuw %struct.Pxy_t, ptr %9, i32 0, i32 1
  %28 = load double, ptr %27, align 8, !tbaa !3
  %29 = getelementptr inbounds nuw %struct.Pxy_t, ptr %8, i32 0, i32 1
  %30 = load double, ptr %29, align 8, !tbaa !3
  %31 = fsub double %28, %30
  %32 = getelementptr inbounds nuw %struct.Pxy_t, ptr %7, i32 0, i32 0
  %33 = load double, ptr %32, align 8, !tbaa !8
  %34 = getelementptr inbounds nuw %struct.Pxy_t, ptr %8, i32 0, i32 0
  %35 = load double, ptr %34, align 8, !tbaa !8
  %36 = fsub double %33, %35
  %37 = fmul double %31, %36
  %38 = fneg double %37
  %39 = call double @llvm.fmuladd.f64(double %21, double %26, double %38)
  store double %39, ptr %10, align 8, !tbaa !9
  %40 = load double, ptr %10, align 8, !tbaa !9
  %41 = fcmp ogt double %40, 0.000000e+00
  br i1 %41, label %42, label %43

42:                                               ; preds = %6
  br label %47

43:                                               ; preds = %6
  %44 = load double, ptr %10, align 8, !tbaa !9
  %45 = fcmp olt double %44, 0.000000e+00
  %46 = select i1 %45, i32 1, i32 3
  br label %47

47:                                               ; preds = %43, %42
  %48 = phi i32 [ 2, %42 ], [ %46, %43 ]
  call void @llvm.lifetime.end.p0(i64 8, ptr %10) #9
  ret i32 %48
}

; Function Attrs: nounwind uwtable
define zeroext i1 @between(double %0, double %1, double %2, double %3, double %4, double %5) #0 {
  %7 = alloca i1, align 1
  %8 = alloca %struct.Pxy_t, align 8
  %9 = alloca %struct.Pxy_t, align 8
  %10 = alloca %struct.Pxy_t, align 8
  %11 = alloca %struct.Pxy_t, align 8
  %12 = alloca %struct.Pxy_t, align 8
  %13 = alloca i32, align 4
  %14 = getelementptr inbounds nuw { double, double }, ptr %8, i32 0, i32 0
  store double %0, ptr %14, align 8
  %15 = getelementptr inbounds nuw { double, double }, ptr %8, i32 0, i32 1
  store double %1, ptr %15, align 8
  %16 = getelementptr inbounds nuw { double, double }, ptr %9, i32 0, i32 0
  store double %2, ptr %16, align 8
  %17 = getelementptr inbounds nuw { double, double }, ptr %9, i32 0, i32 1
  store double %3, ptr %17, align 8
  %18 = getelementptr inbounds nuw { double, double }, ptr %10, i32 0, i32 0
  store double %4, ptr %18, align 8
  %19 = getelementptr inbounds nuw { double, double }, ptr %10, i32 0, i32 1
  store double %5, ptr %19, align 8
  call void @llvm.lifetime.start.p0(i64 16, ptr %11) #9
  %20 = getelementptr inbounds nuw %struct.Pxy_t, ptr %11, i32 0, i32 0
  %21 = getelementptr inbounds nuw %struct.Pxy_t, ptr %9, i32 0, i32 0
  %22 = load double, ptr %21, align 8, !tbaa !8
  %23 = getelementptr inbounds nuw %struct.Pxy_t, ptr %8, i32 0, i32 0
  %24 = load double, ptr %23, align 8, !tbaa !8
  %25 = fsub double %22, %24
  store double %25, ptr %20, align 8, !tbaa !8
  %26 = getelementptr inbounds nuw %struct.Pxy_t, ptr %11, i32 0, i32 1
  %27 = getelementptr inbounds nuw %struct.Pxy_t, ptr %9, i32 0, i32 1
  %28 = load double, ptr %27, align 8, !tbaa !3
  %29 = getelementptr inbounds nuw %struct.Pxy_t, ptr %8, i32 0, i32 1
  %30 = load double, ptr %29, align 8, !tbaa !3
  %31 = fsub double %28, %30
  store double %31, ptr %26, align 8, !tbaa !3
  call void @llvm.lifetime.start.p0(i64 16, ptr %12) #9
  %32 = getelementptr inbounds nuw %struct.Pxy_t, ptr %12, i32 0, i32 0
  %33 = getelementptr inbounds nuw %struct.Pxy_t, ptr %10, i32 0, i32 0
  %34 = load double, ptr %33, align 8, !tbaa !8
  %35 = getelementptr inbounds nuw %struct.Pxy_t, ptr %8, i32 0, i32 0
  %36 = load double, ptr %35, align 8, !tbaa !8
  %37 = fsub double %34, %36
  store double %37, ptr %32, align 8, !tbaa !8
  %38 = getelementptr inbounds nuw %struct.Pxy_t, ptr %12, i32 0, i32 1
  %39 = getelementptr inbounds nuw %struct.Pxy_t, ptr %10, i32 0, i32 1
  %40 = load double, ptr %39, align 8, !tbaa !3
  %41 = getelementptr inbounds nuw %struct.Pxy_t, ptr %8, i32 0, i32 1
  %42 = load double, ptr %41, align 8, !tbaa !3
  %43 = fsub double %40, %42
  store double %43, ptr %38, align 8, !tbaa !3
  %44 = getelementptr inbounds nuw { double, double }, ptr %8, i32 0, i32 0
  %45 = load double, ptr %44, align 8
  %46 = getelementptr inbounds nuw { double, double }, ptr %8, i32 0, i32 1
  %47 = load double, ptr %46, align 8
  %48 = getelementptr inbounds nuw { double, double }, ptr %9, i32 0, i32 0
  %49 = load double, ptr %48, align 8
  %50 = getelementptr inbounds nuw { double, double }, ptr %9, i32 0, i32 1
  %51 = load double, ptr %50, align 8
  %52 = getelementptr inbounds nuw { double, double }, ptr %10, i32 0, i32 0
  %53 = load double, ptr %52, align 8
  %54 = getelementptr inbounds nuw { double, double }, ptr %10, i32 0, i32 1
  %55 = load double, ptr %54, align 8
  %56 = call i32 @ccw(double %45, double %47, double %49, double %51, double %53, double %55)
  %57 = icmp ne i32 %56, 3
  br i1 %57, label %58, label %59

58:                                               ; preds = %6
  store i1 false, ptr %7, align 1
  store i32 1, ptr %13, align 4
  br label %95

59:                                               ; preds = %6
  %60 = getelementptr inbounds nuw %struct.Pxy_t, ptr %12, i32 0, i32 0
  %61 = load double, ptr %60, align 8, !tbaa !8
  %62 = getelementptr inbounds nuw %struct.Pxy_t, ptr %11, i32 0, i32 0
  %63 = load double, ptr %62, align 8, !tbaa !8
  %64 = getelementptr inbounds nuw %struct.Pxy_t, ptr %12, i32 0, i32 1
  %65 = load double, ptr %64, align 8, !tbaa !3
  %66 = getelementptr inbounds nuw %struct.Pxy_t, ptr %11, i32 0, i32 1
  %67 = load double, ptr %66, align 8, !tbaa !3
  %68 = fmul double %65, %67
  %69 = call double @llvm.fmuladd.f64(double %61, double %63, double %68)
  %70 = fcmp oge double %69, 0.000000e+00
  br i1 %70, label %71, label %93

71:                                               ; preds = %59
  %72 = getelementptr inbounds nuw %struct.Pxy_t, ptr %12, i32 0, i32 0
  %73 = load double, ptr %72, align 8, !tbaa !8
  %74 = getelementptr inbounds nuw %struct.Pxy_t, ptr %12, i32 0, i32 0
  %75 = load double, ptr %74, align 8, !tbaa !8
  %76 = getelementptr inbounds nuw %struct.Pxy_t, ptr %12, i32 0, i32 1
  %77 = load double, ptr %76, align 8, !tbaa !3
  %78 = getelementptr inbounds nuw %struct.Pxy_t, ptr %12, i32 0, i32 1
  %79 = load double, ptr %78, align 8, !tbaa !3
  %80 = fmul double %77, %79
  %81 = call double @llvm.fmuladd.f64(double %73, double %75, double %80)
  %82 = getelementptr inbounds nuw %struct.Pxy_t, ptr %11, i32 0, i32 0
  %83 = load double, ptr %82, align 8, !tbaa !8
  %84 = getelementptr inbounds nuw %struct.Pxy_t, ptr %11, i32 0, i32 0
  %85 = load double, ptr %84, align 8, !tbaa !8
  %86 = getelementptr inbounds nuw %struct.Pxy_t, ptr %11, i32 0, i32 1
  %87 = load double, ptr %86, align 8, !tbaa !3
  %88 = getelementptr inbounds nuw %struct.Pxy_t, ptr %11, i32 0, i32 1
  %89 = load double, ptr %88, align 8, !tbaa !3
  %90 = fmul double %87, %89
  %91 = call double @llvm.fmuladd.f64(double %83, double %85, double %90)
  %92 = fcmp ole double %81, %91
  br label %93

93:                                               ; preds = %71, %59
  %94 = phi i1 [ false, %59 ], [ %92, %71 ]
  store i1 %94, ptr %7, align 1
  store i32 1, ptr %13, align 4
  br label %95

95:                                               ; preds = %93, %58
  call void @llvm.lifetime.end.p0(i64 16, ptr %12) #9
  call void @llvm.lifetime.end.p0(i64 16, ptr %11) #9
  %96 = load i1, ptr %7, align 1
  ret i1 %96
}