; Function Attrs: mustprogress nofree norecurse nosync nounwind willreturn memory(none) uwtable
define zeroext i1 @between(double %0, double %1, double %2, double %3, double %4, double %5) local_unnamed_addr #0 {
  %7 = fsub double %2, %0
  %8 = fsub double %3, %1
  %9 = fsub double %4, %0
  %10 = fsub double %5, %1
  %11 = fsub double %1, %3
  %12 = fsub double %4, %2
  %13 = fsub double %5, %3
  %14 = fsub double %0, %2
  %15 = fneg double %14
  %16 = fmul double %13, %15
  %17 = tail call double @llvm.fmuladd.f64(double %11, double %12, double %16)
  %.not = fcmp ueq double %17, 0.000000e+00
  br i1 %.not, label %18, label %28

18:                                               ; preds = %6
  %19 = fmul double %8, %10
  %20 = tail call double @llvm.fmuladd.f64(double %9, double %7, double %19)
  %21 = fcmp ult double %20, 0.000000e+00
  br i1 %21, label %28, label %22

22:                                               ; preds = %18
  %23 = fmul double %10, %10
  %24 = tail call double @llvm.fmuladd.f64(double %9, double %9, double %23)
  %25 = fmul double %8, %8
  %26 = tail call double @llvm.fmuladd.f64(double %7, double %7, double %25)
  %27 = fcmp ole double %24, %26
  br label %28

28:                                               ; preds = %18, %22, %6
  %.0 = phi i1 [ false, %6 ], [ false, %18 ], [ %27, %22 ]
  ret i1 %.0
}